target datalayout = "e-m:e-p270:32:32-p271:32:32-p272:64:64-i64:64-i128:128-f80:128-n8:16:32:64-S128"
target triple = "x86_64-pc-linux-gnu"

%struct.wg_qqword = type { [32 x i8] }
%struct.wg_key_uat_record_t = type { i32, ptr }

@wg_key_records = internal global ptr null, align 8
@num_wg_key_records = internal global i32 0, align 4
@wg_decryption_supported = internal global i8 0, align 1
@.str.106 = private unnamed_addr constant [35 x i8] c"epan/dissectors/packet-wireguard.c\00", align 1
@wg_keylog_file = internal global ptr null, align 8
@wg_static_keys = internal global ptr null, align 8
@.str.109 = private unnamed_addr constant [29 x i8] c"%s:%u: failed assertion \22%s\22\00", align 1
@.str.132 = private unnamed_addr constant [8 x i8] c"decoded\00", align 1
@wg_keylog_last_ekey = internal global ptr null, align 8

; Function Attrs: alwaysinline nounwind
define internal ptr @memcpy.inline(ptr noalias %0, ptr noalias %1, i64 %2) #11 {
  %4 = alloca ptr, align 8
  %5 = alloca ptr, align 8
  %6 = alloca i64, align 8
  store ptr %0, ptr %4, align 8
  store ptr %1, ptr %5, align 8
  store i64 %2, ptr %6, align 8
  %7 = load ptr, ptr %4, align 8
  %8 = load ptr, ptr %5, align 8
  %9 = load i64, ptr %6, align 8
  %10 = load ptr, ptr %4, align 8
  %11 = call i64 @llvm.objectsize.i64.p0(ptr %10, i1 false, i1 true, i1 true)
  %12 = call ptr @__memcpy_chk(ptr noundef %7, ptr noundef %8, i64 noundef %9, i64 noundef %11) #19
  ret ptr %12
}

; Function Attrs: null_pointer_is_valid sspstrong uwtable
define internal zeroext i1 @decode_base64_key(ptr noundef %0, ptr noundef %1) #0 {
  %3 = alloca i1, align 1
  %4 = alloca ptr, align 8
  %5 = alloca ptr, align 8
  %6 = alloca i64, align 8
  %7 = alloca [45 x i8], align 16
  %8 = alloca i32, align 4
  store ptr %0, ptr %4, align 8
  store ptr %1, ptr %5, align 8
  call void @llvm.lifetime.start.p0(i64 8, ptr %6) #19
  call void @llvm.lifetime.start.p0(i64 45, ptr %7) #19
  %9 = load ptr, ptr %5, align 8
  %10 = call i64 @strlen(ptr noundef %9) #20
  %11 = add i64 %10, 1
  %12 = icmp ne i64 %11, 45
  br i1 %12, label %13, label %14

13:                                               ; preds = %2
  store i1 false, ptr %3, align 1
  store i32 1, ptr %8, align 4
  br label %29

14:                                               ; preds = %2
  %15 = getelementptr inbounds [45 x i8], ptr %7, i64 0, i64 0
  %16 = load ptr, ptr %5, align 8
  %17 = call ptr @memcpy.inline(ptr noundef %15, ptr noundef %16, i64 noundef 45) #19
  %18 = getelementptr inbounds [45 x i8], ptr %7, i64 0, i64 0
  %19 = call ptr @g_base64_decode_inplace(ptr noundef %18, ptr noundef %6)
  %20 = load i64, ptr %6, align 8
  %21 = icmp ne i64 %20, 32
  br i1 %21, label %22, label %23

22:                                               ; preds = %14
  store i1 false, ptr %3, align 1
  store i32 1, ptr %8, align 4
  br label %29

23:                                               ; preds = %14
  %24 = load ptr, ptr %4, align 8
  %25 = getelementptr inbounds nuw %struct.wg_qqword, ptr %24, i32 0, i32 0
  %26 = getelementptr inbounds [32 x i8], ptr %25, i64 0, i64 0
  %27 = getelementptr inbounds [45 x i8], ptr %7, i64 0, i64 0
  %28 = call ptr @memcpy.inline(ptr noundef %26, ptr noundef %27, i64 noundef 32) #19
  store i1 true, ptr %3, align 1
  store i32 1, ptr %8, align 4
  br label %29

29:                                               ; preds = %23, %22, %13
  call void @llvm.lifetime.end.p0(i64 45, ptr %7) #19
  call void @llvm.lifetime.end.p0(i64 8, ptr %6) #19
  %30 = load i1, ptr %3, align 1
  ret i1 %30
}

; Function Attrs: null_pointer_is_valid sspstrong uwtable
define internal void @wg_keylog_reset() #0 {
  %1 = load ptr, ptr @wg_keylog_file, align 8
  %2 = icmp ne ptr %1, null
  br i1 %2, label %3, label %6

3:                                                ; preds = %0
  %4 = load ptr, ptr @wg_keylog_file, align 8
  %5 = call i32 @fclose(ptr noundef %4)
  store ptr null, ptr @wg_keylog_file, align 8
  store ptr null, ptr @wg_keylog_last_ekey, align 8
  br label %6

6:                                                ; preds = %3, %0
  ret void
}

; Function Attrs: null_pointer_is_valid sspstrong uwtable
define internal void @wg_key_uat_apply() #0 {
  %1 = alloca i32, align 4
  %2 = alloca ptr, align 8
  %3 = alloca %struct.wg_qqword, align 1
  %4 = alloca i8, align 1
  %5 = load i8, ptr @wg_decryption_supported, align 1, !range !6, !noundef !7
  %6 = trunc i8 %5 to i1
  br i1 %6, label %8, label %7

7:                                                ; preds = %0
  br label %44

8:                                                ; preds = %0
  %9 = load ptr, ptr @wg_static_keys, align 8
  %10 = icmp ne ptr %9, null
  br i1 %10, label %13, label %11

11:                                               ; preds = %8
  %12 = call ptr @g_hash_table_new_full(ptr noundef @g_int_hash, ptr noundef @wg_pubkey_equal, ptr noundef null, ptr noundef @g_free)
  store ptr %12, ptr @wg_static_keys, align 8
  br label %15

13:                                               ; preds = %8
  %14 = load ptr, ptr @wg_static_keys, align 8
  call void @g_hash_table_remove_all(ptr noundef %14)
  br label %15

15:                                               ; preds = %13, %11
  call void @wg_keylog_reset()
  call void @llvm.lifetime.start.p0(i64 4, ptr %1) #19
  store i32 0, ptr %1, align 4
  br label %16

16:                                               ; preds = %41, %15
  %17 = load i32, ptr %1, align 4
  %18 = load i32, ptr @num_wg_key_records, align 4
  %19 = icmp ult i32 %17, %18
  br i1 %19, label %21, label %20

20:                                               ; preds = %16
  call void @llvm.lifetime.end.p0(i64 4, ptr %1) #19
  br label %44

21:                                               ; preds = %16
  call void @llvm.lifetime.start.p0(i64 8, ptr %2) #19
  %22 = load ptr, ptr @wg_key_records, align 8
  %23 = load i32, ptr %1, align 4
  %24 = zext i32 %23 to i64
  %25 = getelementptr %struct.wg_key_uat_record_t, ptr %22, i64 %24
  store ptr %25, ptr %2, align 8
  call void @llvm.lifetime.start.p0(i64 32, ptr %3) #19
  call void @llvm.lifetime.start.p0(i64 1, ptr %4) #19
  %26 = load ptr, ptr %2, align 8
  %27 = getelementptr inbounds nuw %struct.wg_key_uat_record_t, ptr %26, i32 0, i32 1
  %28 = load ptr, ptr %27, align 8
  %29 = call zeroext i1 @decode_base64_key(ptr noundef %3, ptr noundef %28)
  %30 = zext i1 %29 to i8
  store i8 %30, ptr %4, align 1
  %31 = load i8, ptr %4, align 1, !range !6, !noundef !7
  %32 = trunc i8 %31 to i1
  br i1 %32, label %33, label %34

33:                                               ; preds = %21
  br label %36

34:                                               ; preds = %21
  call void (ptr, ...) @proto_report_dissector_bug(ptr noundef @.str.109, ptr noundef @.str.106, i32 noundef 831, ptr noundef @.str.132) #22
  unreachable

35:                                               ; No predecessors!
  br label %36

36:                                               ; preds = %35, %33
  %37 = load ptr, ptr %2, align 8
  %38 = getelementptr inbounds nuw %struct.wg_key_uat_record_t, ptr %37, i32 0, i32 0
  %39 = load i32, ptr %38, align 8
  %40 = icmp eq i32 %39, 1
  call void @wg_add_static_key(ptr noundef %3, i1 noundef zeroext %40)
  call void @llvm.lifetime.end.p0(i64 1, ptr %4) #19
  call void @llvm.lifetime.end.p0(i64 32, ptr %3) #19
  call void @llvm.lifetime.end.p0(i64 8, ptr %2) #19
  br label %41

41:                                               ; preds = %36
  %42 = load i32, ptr %1, align 4
  %43 = add i32 %42, 1
  store i32 %43, ptr %1, align 4
  br label %16, !llvm.loop !11

44:                                               ; preds = %7, %20
  ret void
}