; Function Attrs: null_pointer_is_valid sspstrong uwtable
define internal void @wg_key_uat_apply() #0 {
  %1 = alloca i64, align 8
  %2 = alloca [45 x i8], align 16
  %3 = alloca %struct.wg_qqword, align 1
  %.b11 = load i1, ptr @wg_decryption_supported, align 1
  br i1 %.b11, label %4, label %.loopexit

4:                                                ; preds = %0
  %5 = load ptr, ptr @wg_static_keys, align 8
  %.not = icmp eq ptr %5, null
  br i1 %.not, label %6, label %8

6:                                                ; preds = %4
  %7 = tail call ptr @g_hash_table_new_full(ptr noundef nonnull @g_int_hash, ptr noundef nonnull @wg_pubkey_equal, ptr noundef null, ptr noundef nonnull @g_free)
  store ptr %7, ptr @wg_static_keys, align 8
  br label %9

8:                                                ; preds = %4
  tail call void @g_hash_table_remove_all(ptr noundef nonnull %5)
  br label %9

9:                                                ; preds = %8, %6
  %10 = load ptr, ptr @wg_keylog_file, align 8
  %.not.i = icmp eq ptr %10, null
  br i1 %.not.i, label %wg_keylog_reset.exit, label %11

11:                                               ; preds = %9
  %12 = tail call i32 @fclose(ptr noundef nonnull %10)
  store ptr null, ptr @wg_keylog_file, align 8
  store ptr null, ptr @wg_keylog_last_ekey, align 8
  br label %wg_keylog_reset.exit

wg_keylog_reset.exit:                             ; preds = %9, %11
  %13 = load i32, ptr @num_wg_key_records, align 4
  %.not9 = icmp eq i32 %13, 0
  br i1 %.not9, label %.loopexit, label %.lr.ph

.lr.ph:                                           ; preds = %wg_keylog_reset.exit, %23
  %indvars.iv = phi i64 [ %indvars.iv.next, %23 ], [ 0, %wg_keylog_reset.exit ]
  %14 = load ptr, ptr @wg_key_records, align 8
  %15 = getelementptr %struct.wg_key_uat_record_t, ptr %14, i64 %indvars.iv
  call void @llvm.lifetime.start.p0(i64 32, ptr nonnull %3) #18
  %16 = getelementptr inbounds nuw i8, ptr %15, i64 8
  %17 = load ptr, ptr %16, align 8
  call void @llvm.lifetime.start.p0(i64 8, ptr nonnull %1) #18
  call void @llvm.lifetime.start.p0(i64 45, ptr nonnull %2) #18
  %18 = call i64 @strlen(ptr noundef readonly %17) #19
  %.not.i6 = icmp eq i64 %18, 44
  br i1 %.not.i6, label %19, label %22

19:                                               ; preds = %.lr.ph
  call void @llvm.memcpy.p0.p0.i64(ptr noundef nonnull align 16 dereferenceable(45) %2, ptr noundef readonly align 1 dereferenceable(45) %17, i64 noundef 45, i1 noundef false) #18
  %20 = call ptr @g_base64_decode_inplace(ptr noundef nonnull %2, ptr noundef nonnull %1)
  %21 = load i64, ptr %1, align 8
  %.not4.i = icmp eq i64 %21, 32
  br i1 %.not4.i, label %23, label %22

22:                                               ; preds = %.lr.ph, %19
  call void @llvm.lifetime.end.p0(i64 45, ptr nonnull %2) #18
  call void @llvm.lifetime.end.p0(i64 8, ptr nonnull %1) #18
  call void (ptr, ...) @proto_report_dissector_bug(ptr noundef nonnull @.str.109, ptr noundef nonnull @.str.106, i32 noundef 831, ptr noundef nonnull @.str.132) #21
  unreachable

23:                                               ; preds = %19
  call void @llvm.memcpy.p0.p0.i64(ptr noundef nonnull align 1 dereferenceable(32) %3, ptr noundef nonnull align 16 dereferenceable(32) %2, i64 noundef 32, i1 noundef false) #18
  call void @llvm.lifetime.end.p0(i64 45, ptr nonnull %2) #18
  call void @llvm.lifetime.end.p0(i64 8, ptr nonnull %1) #18
  %24 = load i32, ptr %15, align 8
  %25 = icmp eq i32 %24, 1
  call fastcc void @wg_add_static_key(ptr noundef nonnull %3, i1 noundef zeroext %25)
  call void @llvm.lifetime.end.p0(i64 32, ptr nonnull %3) #18
  %indvars.iv.next = add nuw nsw i64 %indvars.iv, 1
  %26 = load i32, ptr @num_wg_key_records, align 4
  %27 = zext i32 %26 to i64
  %28 = icmp samesign ult i64 %indvars.iv.next, %27
  br i1 %28, label %.lr.ph, label %.loopexit, !llvm.loop !14

.loopexit:                                        ; preds = %23, %wg_keylog_reset.exit, %0
  ret void
}